target datalayout = "e-m:e-p270:32:32-p271:32:32-p272:64:64-i64:64-i128:128-f80:128-n8:16:32:64-S128"
target triple = "x86_64-pc-linux-gnu"

%"struct.std::array.2" = type { [5 x i32] }
%"class.std::__cxx11::basic_string" = type { %"struct.std::__cxx11::basic_string<char>::_Alloc_hider", i64, %union.anon }
%"struct.std::__cxx11::basic_string<char>::_Alloc_hider" = type { ptr }
%union.anon = type { i64, [8 x i8] }
%struct.t_filenm = type { i32, ptr, ptr, i64, %"class.std::vector" }
%"class.std::vector" = type { %"struct.std::_Vector_base" }
%"struct.std::_Vector_base" = type { %"struct.std::_Vector_base<std::__cxx11::basic_string<char>, std::allocator<std::__cxx11::basic_string<char>>>::_Vector_impl" }
%"struct.std::_Vector_base<std::__cxx11::basic_string<char>, std::allocator<std::__cxx11::basic_string<char>>>::_Vector_impl" = type { %"struct.std::_Vector_base<std::__cxx11::basic_string<char>, std::allocator<std::__cxx11::basic_string<char>>>::_Vector_impl_data" }
%"struct.std::_Vector_base<std::__cxx11::basic_string<char>, std::allocator<std::__cxx11::basic_string<char>>>::_Vector_impl_data" = type { ptr, ptr, ptr }

@_ZL15canViewFileType = internal constant %"struct.std::array.2" { [5 x i32] [i32 0, i32 34, i32 40, i32 20, i32 13] }, align 4

; Function Attrs: mustprogress nounwind uwtable
define linkonce_odr noundef nonnull align 4 dereferenceable(4) ptr @_ZNSt14__array_traitsIiLm5EE6_S_refERA5_Kim(ptr noundef nonnull align 4 dereferenceable(20) %0, i64 noundef %1) #5 comdat align 2 {
  %3 = alloca ptr, align 8
  %4 = alloca i64, align 8
  store ptr %0, ptr %3, align 8, !tbaa !27
  store i64 %1, ptr %4, align 8, !tbaa !19
  %5 = load ptr, ptr %3, align 8, !tbaa !27
  %6 = load i64, ptr %4, align 8, !tbaa !19
  %7 = getelementptr inbounds nuw [5 x i32], ptr %5, i64 0, i64 %6
  ret ptr %7
}

; Function Attrs: mustprogress nounwind uwtable
define available_externally noundef ptr @_ZNKSt7__cxx1112basic_stringIcSt11char_traitsIcESaIcEE7_M_dataEv(ptr noundef nonnull align 8 dereferenceable(32) %0) #5 align 2 {
  %2 = alloca ptr, align 8
  store ptr %0, ptr %2, align 8, !tbaa !35
  %3 = load ptr, ptr %2, align 8
  %4 = getelementptr inbounds nuw %"class.std::__cxx11::basic_string", ptr %3, i32 0, i32 0
  %5 = getelementptr inbounds nuw %"struct.std::__cxx11::basic_string<char>::_Alloc_hider", ptr %4, i32 0, i32 0
  %6 = load ptr, ptr %5, align 8, !tbaa !54
  ret ptr %6
}

; Function Attrs: mustprogress nounwind uwtable
define linkonce_odr noundef nonnull align 4 dereferenceable(4) ptr @_ZNKSt5arrayIiLm5EEixEm(ptr noundef nonnull align 4 dereferenceable(20) %0, i64 noundef %1) #5 comdat align 2 {
  %3 = alloca ptr, align 8
  %4 = alloca i64, align 8
  store ptr %0, ptr %3, align 8, !tbaa !25
  store i64 %1, ptr %4, align 8, !tbaa !19
  %5 = load ptr, ptr %3, align 8
  %6 = getelementptr inbounds nuw %"struct.std::array.2", ptr %5, i32 0, i32 0
  %7 = load i64, ptr %4, align 8, !tbaa !19
  %8 = call noundef nonnull align 4 dereferenceable(4) ptr @_ZNSt14__array_traitsIiLm5EE6_S_refERA5_Kim(ptr noundef nonnull align 4 dereferenceable(20) %6, i64 noundef %7) #13
  ret ptr %8
}

; Function Attrs: mustprogress nounwind uwtable
define available_externally noundef ptr @_ZNKSt7__cxx1112basic_stringIcSt11char_traitsIcESaIcEE5c_strEv(ptr noundef nonnull align 8 dereferenceable(32) %0) #5 align 2 {
  %2 = alloca ptr, align 8
  store ptr %0, ptr %2, align 8, !tbaa !35
  %3 = load ptr, ptr %2, align 8
  %4 = call noundef ptr @_ZNKSt7__cxx1112basic_stringIcSt11char_traitsIcESaIcEE7_M_dataEv(ptr noundef nonnull align 8 dereferenceable(32) %3)
  ret ptr %4
}

; Function Attrs: mustprogress nounwind uwtable
define linkonce_odr noundef nonnull align 8 dereferenceable(32) ptr @_ZNSt6vectorINSt7__cxx1112basic_stringIcSt11char_traitsIcESaIcEEESaIS5_EEixEm(ptr noundef nonnull align 8 dereferenceable(24) %0, i64 noundef %1) #5 comdat align 2 {
  %3 = alloca ptr, align 8
  %4 = alloca i64, align 8
  store ptr %0, ptr %3, align 8, !tbaa !87
  store i64 %1, ptr %4, align 8, !tbaa !19
  %5 = load ptr, ptr %3, align 8
  %6 = getelementptr inbounds nuw %"struct.std::_Vector_base", ptr %5, i32 0, i32 0
  %7 = getelementptr inbounds nuw %"struct.std::_Vector_base<std::__cxx11::basic_string<char>, std::allocator<std::__cxx11::basic_string<char>>>::_Vector_impl_data", ptr %6, i32 0, i32 0
  %8 = load ptr, ptr %7, align 8, !tbaa !89
  %9 = load i64, ptr %4, align 8, !tbaa !19
  %10 = getelementptr inbounds nuw %"class.std::__cxx11::basic_string", ptr %8, i64 %9
  ret ptr %10
}

; Function Attrs: mustprogress nounwind uwtable
define internal noundef i32 @_ZL8can_viewi(i32 noundef %0) #5 {
  %2 = alloca i32, align 4
  %3 = alloca i32, align 4
  %4 = alloca i32, align 4
  %5 = alloca i32, align 4
  store i32 %0, ptr %3, align 4, !tbaa !13
  call void @llvm.lifetime.start.p0(i64 4, ptr %4) #13
  store i32 1, ptr %4, align 4, !tbaa !13
  br label %6

6:                                                ; preds = %20, %1
  %7 = load i32, ptr %4, align 4, !tbaa !13
  %8 = icmp slt i32 %7, 5
  br i1 %8, label %10, label %9

9:                                                ; preds = %6
  store i32 2, ptr %5, align 4
  br label %23

10:                                               ; preds = %6
  %11 = load i32, ptr %3, align 4, !tbaa !13
  %12 = load i32, ptr %4, align 4, !tbaa !13
  %13 = sext i32 %12 to i64
  %14 = call noundef nonnull align 4 dereferenceable(4) ptr @_ZNKSt5arrayIiLm5EEixEm(ptr noundef nonnull align 4 dereferenceable(20) @_ZL15canViewFileType, i64 noundef %13) #13
  %15 = load i32, ptr %14, align 4, !tbaa !13
  %16 = icmp eq i32 %11, %15
  br i1 %16, label %17, label %19

17:                                               ; preds = %10
  %18 = load i32, ptr %4, align 4, !tbaa !13
  store i32 %18, ptr %2, align 4
  store i32 1, ptr %5, align 4
  br label %23

19:                                               ; preds = %10
  br label %20

20:                                               ; preds = %19
  %21 = load i32, ptr %4, align 4, !tbaa !13
  %22 = add nsw i32 %21, 1
  store i32 %22, ptr %4, align 4, !tbaa !13
  br label %6, !llvm.loop !15

23:                                               ; preds = %17, %9
  call void @llvm.lifetime.end.p0(i64 4, ptr %4) #13
  %24 = load i32, ptr %5, align 4
  switch i32 %24, label %28 [
    i32 2, label %25
    i32 1, label %26
  ]

25:                                               ; preds = %23
  store i32 0, ptr %2, align 4
  br label %26

26:                                               ; preds = %25, %23
  %27 = load i32, ptr %2, align 4
  ret i32 %27

28:                                               ; preds = %23
  unreachable
}

; Function Attrs: mustprogress uwtable
define void @_Z8view_allPK16gmx_output_env_tiP8t_filenm(ptr noundef %0, i32 noundef %1, ptr noundef %2) #0 {
  %4 = alloca ptr, align 8
  %5 = alloca i32, align 4
  %6 = alloca ptr, align 8
  %7 = alloca i32, align 4
  store ptr %0, ptr %4, align 8, !tbaa !4
  store i32 %1, ptr %5, align 4, !tbaa !13
  store ptr %2, ptr %6, align 8, !tbaa !78
  call void @llvm.lifetime.start.p0(i64 4, ptr %7) #13
  store i32 0, ptr %7, align 4, !tbaa !13
  br label %8

8:                                                ; preds = %49, %3
  %9 = load i32, ptr %7, align 4, !tbaa !13
  %10 = load i32, ptr %5, align 4, !tbaa !13
  %11 = icmp slt i32 %9, %10
  br i1 %11, label %12, label %52

12:                                               ; preds = %8
  %13 = load ptr, ptr %6, align 8, !tbaa !78
  %14 = load i32, ptr %7, align 4, !tbaa !13
  %15 = sext i32 %14 to i64
  %16 = getelementptr inbounds %struct.t_filenm, ptr %13, i64 %15
  %17 = getelementptr inbounds nuw %struct.t_filenm, ptr %16, i32 0, i32 0
  %18 = load i32, ptr %17, align 8, !tbaa !80
  %19 = call noundef i32 @_ZL8can_viewi(i32 noundef %18)
  %20 = icmp ne i32 %19, 0
  br i1 %20, label %21, label %48

21:                                               ; preds = %12
  %22 = load ptr, ptr %6, align 8, !tbaa !78
  %23 = load i32, ptr %7, align 4, !tbaa !13
  %24 = sext i32 %23 to i64
  %25 = getelementptr inbounds %struct.t_filenm, ptr %22, i64 %24
  %26 = call noundef zeroext i1 @_Z9is_outputPK8t_filenm(ptr noundef %25)
  br i1 %26, label %27, label %48

27:                                               ; preds = %21
  %28 = load ptr, ptr %6, align 8, !tbaa !78
  %29 = load i32, ptr %7, align 4, !tbaa !13
  %30 = sext i32 %29 to i64
  %31 = getelementptr inbounds %struct.t_filenm, ptr %28, i64 %30
  %32 = call noundef zeroext i1 @_Z11is_optionalPK8t_filenm(ptr noundef %31)
  br i1 %32, label %33, label %39

33:                                               ; preds = %27
  %34 = load ptr, ptr %6, align 8, !tbaa !78
  %35 = load i32, ptr %7, align 4, !tbaa !13
  %36 = sext i32 %35 to i64
  %37 = getelementptr inbounds %struct.t_filenm, ptr %34, i64 %36
  %38 = call noundef zeroext i1 @_Z6is_setPK8t_filenm(ptr noundef %37)
  br i1 %38, label %39, label %48

39:                                               ; preds = %33, %27
  %40 = load ptr, ptr %4, align 8, !tbaa !4
  %41 = load ptr, ptr %6, align 8, !tbaa !78
  %42 = load i32, ptr %7, align 4, !tbaa !13
  %43 = sext i32 %42 to i64
  %44 = getelementptr inbounds %struct.t_filenm, ptr %41, i64 %43
  %45 = getelementptr inbounds nuw %struct.t_filenm, ptr %44, i32 0, i32 4
  %46 = call noundef nonnull align 8 dereferenceable(32) ptr @_ZNSt6vectorINSt7__cxx1112basic_stringIcSt11char_traitsIcESaIcEEESaIS5_EEixEm(ptr noundef nonnull align 8 dereferenceable(24) %45, i64 noundef 0) #13
  %47 = call noundef ptr @_ZNKSt7__cxx1112basic_stringIcSt11char_traitsIcESaIcEE5c_strEv(ptr noundef nonnull align 8 dereferenceable(32) %46) #13
  call void @_Z7do_viewPK16gmx_output_env_tPKcS3_(ptr noundef %40, ptr noundef %47, ptr noundef null)
  br label %48

48:                                               ; preds = %39, %33, %21, %12
  br label %49

49:                                               ; preds = %48
  %50 = load i32, ptr %7, align 4, !tbaa !13
  %51 = add nsw i32 %50, 1
  store i32 %51, ptr %7, align 4, !tbaa !13
  br label %8, !llvm.loop !86

52:                                               ; preds = %8
  call void @llvm.lifetime.end.p0(i64 4, ptr %7) #13
  ret void
}