; Function Attrs: mustprogress uwtable
define void @_Z8view_allPK16gmx_output_env_tiP8t_filenm(ptr noundef %0, i32 noundef %1, ptr noundef %2) local_unnamed_addr #0 {
  %4 = icmp sgt i32 %1, 0
  br i1 %4, label %.lr.ph.preheader, label %._crit_edge

.lr.ph.preheader:                                 ; preds = %3
  %wide.trip.count = zext nneg i32 %1 to i64
  br label %.lr.ph

.lr.ph:                                           ; preds = %.lr.ph.preheader, %_ZL8can_viewi.exit.thread
  %indvars.iv = phi i64 [ 0, %.lr.ph.preheader ], [ %indvars.iv.next, %_ZL8can_viewi.exit.thread ]
  %5 = getelementptr inbounds nuw %struct.t_filenm, ptr %2, i64 %indvars.iv
  %6 = load i32, ptr %5, align 8, !tbaa !25
  br label %7

7:                                                ; preds = %11, %.lr.ph
  %indvars.iv.i = phi i64 [ 1, %.lr.ph ], [ %indvars.iv.next.i, %11 ]
  %8 = getelementptr inbounds nuw [5 x i32], ptr @_ZL15canViewFileType, i64 0, i64 %indvars.iv.i
  %9 = load i32, ptr %8, align 4, !tbaa !9
  %10 = icmp eq i32 %6, %9
  br i1 %10, label %_ZL8can_viewi.exit, label %11

11:                                               ; preds = %7
  %indvars.iv.next.i = add nuw nsw i64 %indvars.iv.i, 1
  %exitcond.i = icmp eq i64 %indvars.iv.next.i, 5
  br i1 %exitcond.i, label %_ZL8can_viewi.exit.thread, label %7, !llvm.loop !11

_ZL8can_viewi.exit:                               ; preds = %7
  %12 = tail call noundef zeroext i1 @_Z9is_outputPK8t_filenm(ptr noundef nonnull %5)
  br i1 %12, label %13, label %_ZL8can_viewi.exit.thread

13:                                               ; preds = %_ZL8can_viewi.exit
  %14 = tail call noundef zeroext i1 @_Z11is_optionalPK8t_filenm(ptr noundef nonnull %5)
  br i1 %14, label %15, label %17

15:                                               ; preds = %13
  %16 = tail call noundef zeroext i1 @_Z6is_setPK8t_filenm(ptr noundef nonnull %5)
  br i1 %16, label %17, label %_ZL8can_viewi.exit.thread

17:                                               ; preds = %15, %13
  %18 = getelementptr inbounds nuw i8, ptr %5, i64 32
  %19 = load ptr, ptr %18, align 8, !tbaa !32
  %20 = load ptr, ptr %19, align 8, !tbaa !19
  tail call void @_Z7do_viewPK16gmx_output_env_tPKcS3_(ptr noundef %0, ptr noundef %20, ptr noundef null)
  br label %_ZL8can_viewi.exit.thread

_ZL8can_viewi.exit.thread:                        ; preds = %11, %_ZL8can_viewi.exit, %15, %17
  %indvars.iv.next = add nuw nsw i64 %indvars.iv, 1
  %exitcond.not = icmp eq i64 %indvars.iv.next, %wide.trip.count
  br i1 %exitcond.not, label %._crit_edge, label %.lr.ph, !llvm.loop !33

._crit_edge:                                      ; preds = %_ZL8can_viewi.exit.thread, %3
  ret void
}